target datalayout = "e-m:e-p270:32:32-p271:32:32-p272:64:64-i64:64-i128:128-f80:128-n8:16:32:64-S128"
target triple = "x86_64-pc-linux-gnu"

%struct.WaveFile = type { %struct.WaveChunk, %struct.WaveFormat, %struct.WaveFact, i64, ptr, i32, i32, i32 }
%struct.WaveChunk = type { i32, i32, i64, ptr, i64 }
%struct.WaveFormat = type { i16, i16, i16, i32, i32, i16, i16, i16, i16, i32, i32, [16 x i8] }
%struct.WaveFact = type { i32, i32 }

@.str.67 = private unnamed_addr constant [40 x i8] c"3-bit IMA ADPCM currently not supported\00", align 1
@.str.68 = private unnamed_addr constant [40 x i8] c"Invalid IMA ADPCM bits per sample of %u\00", align 1
@.str.69 = private unnamed_addr constant [43 x i8] c"Invalid IMA ADPCM block size (nBlockAlign)\00", align 1
@.str.70 = private unnamed_addr constant [65 x i8] c"Invalid number of samples per IMA ADPCM block (wSamplesPerBlock)\00", align 1

; Function Attrs: nounwind uwtable
define internal zeroext i1 @IMA_ADPCM_Init(ptr noundef %0, i64 noundef %1) #0 {
  %3 = alloca i1, align 1
  %4 = alloca ptr, align 8
  %5 = alloca i64, align 8
  %6 = alloca ptr, align 8
  %7 = alloca ptr, align 8
  %8 = alloca i64, align 8
  %9 = alloca i64, align 8
  %10 = alloca i64, align 8
  %11 = alloca i64, align 8
  %12 = alloca i32, align 4
  store ptr %0, ptr %4, align 8
  store i64 %1, ptr %5, align 8
  call void @llvm.lifetime.start.p0(i64 8, ptr %6) #7
  %13 = load ptr, ptr %4, align 8
  %14 = getelementptr inbounds nuw %struct.WaveFile, ptr %13, i32 0, i32 1
  store ptr %14, ptr %6, align 8
  call void @llvm.lifetime.start.p0(i64 8, ptr %7) #7
  %15 = load ptr, ptr %4, align 8
  %16 = getelementptr inbounds nuw %struct.WaveFile, ptr %15, i32 0, i32 0
  store ptr %16, ptr %7, align 8
  call void @llvm.lifetime.start.p0(i64 8, ptr %8) #7
  %17 = load ptr, ptr %6, align 8
  %18 = getelementptr inbounds nuw %struct.WaveFormat, ptr %17, i32 0, i32 2
  %19 = load i16, ptr %18, align 4
  %20 = zext i16 %19 to i64
  %21 = mul i64 %20, 4
  store i64 %21, ptr %8, align 8
  call void @llvm.lifetime.start.p0(i64 8, ptr %9) #7
  %22 = load ptr, ptr %6, align 8
  %23 = getelementptr inbounds nuw %struct.WaveFormat, ptr %22, i32 0, i32 5
  %24 = load i16, ptr %23, align 4
  %25 = zext i16 %24 to i64
  %26 = load i64, ptr %8, align 8
  %27 = sub i64 %25, %26
  store i64 %27, ptr %9, align 8
  call void @llvm.lifetime.start.p0(i64 8, ptr %10) #7
  %28 = load ptr, ptr %6, align 8
  %29 = getelementptr inbounds nuw %struct.WaveFormat, ptr %28, i32 0, i32 6
  %30 = load i16, ptr %29, align 2
  %31 = zext i16 %30 to i64
  %32 = load ptr, ptr %6, align 8
  %33 = getelementptr inbounds nuw %struct.WaveFormat, ptr %32, i32 0, i32 2
  %34 = load i16, ptr %33, align 4
  %35 = zext i16 %34 to i64
  %36 = mul i64 %31, %35
  store i64 %36, ptr %10, align 8
  call void @llvm.lifetime.start.p0(i64 8, ptr %11) #7
  %37 = load i64, ptr %9, align 8
  %38 = mul i64 %37, 8
  %39 = load i64, ptr %10, align 8
  %40 = udiv i64 %38, %39
  store i64 %40, ptr %11, align 8
  %41 = load ptr, ptr %6, align 8
  %42 = getelementptr inbounds nuw %struct.WaveFormat, ptr %41, i32 0, i32 6
  %43 = load i16, ptr %42, align 2
  %44 = zext i16 %43 to i32
  %45 = icmp eq i32 %44, 3
  br i1 %45, label %46, label %48

46:                                               ; preds = %2
  %47 = call zeroext i1 (ptr, ...) @SDL_SetError_REAL(ptr noundef @.str.67)
  store i1 %47, ptr %3, align 1
  store i32 1, ptr %12, align 4
  br label %141

48:                                               ; preds = %2
  %49 = load ptr, ptr %6, align 8
  %50 = getelementptr inbounds nuw %struct.WaveFormat, ptr %49, i32 0, i32 6
  %51 = load i16, ptr %50, align 2
  %52 = zext i16 %51 to i32
  %53 = icmp ne i32 %52, 4
  br i1 %53, label %54, label %60

54:                                               ; preds = %48
  %55 = load ptr, ptr %6, align 8
  %56 = getelementptr inbounds nuw %struct.WaveFormat, ptr %55, i32 0, i32 6
  %57 = load i16, ptr %56, align 2
  %58 = zext i16 %57 to i32
  %59 = call zeroext i1 (ptr, ...) @SDL_SetError_REAL(ptr noundef @.str.68, i32 noundef %58)
  store i1 %59, ptr %3, align 1
  store i32 1, ptr %12, align 4
  br label %141

60:                                               ; preds = %48
  br label %61

61:                                               ; preds = %60
  %62 = load ptr, ptr %6, align 8
  %63 = getelementptr inbounds nuw %struct.WaveFormat, ptr %62, i32 0, i32 5
  %64 = load i16, ptr %63, align 4
  %65 = zext i16 %64 to i64
  %66 = load i64, ptr %8, align 8
  %67 = icmp ult i64 %65, %66
  br i1 %67, label %75, label %68

68:                                               ; preds = %61
  %69 = load ptr, ptr %6, align 8
  %70 = getelementptr inbounds nuw %struct.WaveFormat, ptr %69, i32 0, i32 5
  %71 = load i16, ptr %70, align 4
  %72 = zext i16 %71 to i32
  %73 = srem i32 %72, 4
  %74 = icmp ne i32 %73, 0
  br i1 %74, label %75, label %77

75:                                               ; preds = %68, %61
  %76 = call zeroext i1 (ptr, ...) @SDL_SetError_REAL(ptr noundef @.str.69)
  store i1 %76, ptr %3, align 1
  store i32 1, ptr %12, align 4
  br label %141

77:                                               ; preds = %68
  %78 = load ptr, ptr %6, align 8
  %79 = getelementptr inbounds nuw %struct.WaveFormat, ptr %78, i32 0, i32 0
  %80 = load i16, ptr %79, align 4
  %81 = zext i16 %80 to i32
  %82 = icmp eq i32 %81, 65534
  br i1 %82, label %83, label %84

83:                                               ; preds = %77
  br label %114

84:                                               ; preds = %77
  %85 = load ptr, ptr %7, align 8
  %86 = getelementptr inbounds nuw %struct.WaveChunk, ptr %85, i32 0, i32 4
  %87 = load i64, ptr %86, align 8
  %88 = icmp uge i64 %87, 20
  br i1 %88, label %89, label %113

89:                                               ; preds = %84
  %90 = load ptr, ptr %6, align 8
  %91 = getelementptr inbounds nuw %struct.WaveFormat, ptr %90, i32 0, i32 7
  %92 = load i16, ptr %91, align 4
  %93 = zext i16 %92 to i32
  %94 = icmp sge i32 %93, 2
  br i1 %94, label %95, label %113

95:                                               ; preds = %89
  %96 = load ptr, ptr %7, align 8
  %97 = getelementptr inbounds nuw %struct.WaveChunk, ptr %96, i32 0, i32 3
  %98 = load ptr, ptr %97, align 8
  %99 = getelementptr inbounds i8, ptr %98, i64 18
  %100 = load i8, ptr %99, align 1
  %101 = zext i8 %100 to i32
  %102 = load ptr, ptr %7, align 8
  %103 = getelementptr inbounds nuw %struct.WaveChunk, ptr %102, i32 0, i32 3
  %104 = load ptr, ptr %103, align 8
  %105 = getelementptr inbounds i8, ptr %104, i64 19
  %106 = load i8, ptr %105, align 1
  %107 = zext i8 %106 to i16
  %108 = zext i16 %107 to i32
  %109 = shl i32 %108, 8
  %110 = or i32 %101, %109
  %111 = load ptr, ptr %6, align 8
  %112 = getelementptr inbounds nuw %struct.WaveFormat, ptr %111, i32 0, i32 9
  store i32 %110, ptr %112, align 4
  br label %113

113:                                              ; preds = %95, %89, %84
  br label %114

114:                                              ; preds = %113, %83
  %115 = load ptr, ptr %6, align 8
  %116 = getelementptr inbounds nuw %struct.WaveFormat, ptr %115, i32 0, i32 9
  %117 = load i32, ptr %116, align 4
  %118 = icmp eq i32 %117, 0
  br i1 %118, label %119, label %125

119:                                              ; preds = %114
  %120 = load i64, ptr %11, align 8
  %121 = trunc i64 %120 to i32
  %122 = add i32 %121, 1
  %123 = load ptr, ptr %6, align 8
  %124 = getelementptr inbounds nuw %struct.WaveFormat, ptr %123, i32 0, i32 9
  store i32 %122, ptr %124, align 4
  br label %125

125:                                              ; preds = %119, %114
  %126 = load i64, ptr %11, align 8
  %127 = load ptr, ptr %6, align 8
  %128 = getelementptr inbounds nuw %struct.WaveFormat, ptr %127, i32 0, i32 9
  %129 = load i32, ptr %128, align 4
  %130 = sub i32 %129, 1
  %131 = zext i32 %130 to i64
  %132 = icmp ult i64 %126, %131
  br i1 %132, label %133, label %135

133:                                              ; preds = %125
  %134 = call zeroext i1 (ptr, ...) @SDL_SetError_REAL(ptr noundef @.str.70)
  store i1 %134, ptr %3, align 1
  store i32 1, ptr %12, align 4
  br label %141

135:                                              ; preds = %125
  %136 = load ptr, ptr %4, align 8
  %137 = load i64, ptr %5, align 8
  %138 = call zeroext i1 @IMA_ADPCM_CalculateSampleFrames(ptr noundef %136, i64 noundef %137)
  br i1 %138, label %140, label %139

139:                                              ; preds = %135
  store i1 false, ptr %3, align 1
  store i32 1, ptr %12, align 4
  br label %141

140:                                              ; preds = %135
  store i1 true, ptr %3, align 1
  store i32 1, ptr %12, align 4
  br label %141

141:                                              ; preds = %140, %139, %133, %75, %54, %46
  call void @llvm.lifetime.end.p0(i64 8, ptr %11) #7
  call void @llvm.lifetime.end.p0(i64 8, ptr %10) #7
  call void @llvm.lifetime.end.p0(i64 8, ptr %9) #7
  call void @llvm.lifetime.end.p0(i64 8, ptr %8) #7
  call void @llvm.lifetime.end.p0(i64 8, ptr %7) #7
  call void @llvm.lifetime.end.p0(i64 8, ptr %6) #7
  %142 = load i1, ptr %3, align 1
  ret i1 %142
}