; Function Attrs: nounwind uwtable
define internal fastcc zeroext i1 @IMA_ADPCM_Init(ptr noundef nonnull captures(none) %0, i64 noundef range(i64 0, 4294967296) %1) unnamed_addr #0 {
  %3 = getelementptr inbounds nuw i8, ptr %0, i64 32
  %4 = getelementptr inbounds nuw i8, ptr %0, i64 36
  %5 = load i16, ptr %4, align 4
  %6 = zext i16 %5 to i64
  %7 = shl nuw nsw i64 %6, 2
  %8 = getelementptr inbounds nuw i8, ptr %0, i64 48
  %9 = load i16, ptr %8, align 4
  %10 = zext i16 %9 to i64
  %11 = sub nsw i64 %10, %7
  %12 = getelementptr inbounds nuw i8, ptr %0, i64 50
  %13 = load i16, ptr %12, align 2
  %14 = zext i16 %13 to i64
  %15 = mul nuw nsw i64 %14, %6
  %16 = shl nsw i64 %11, 3
  %17 = udiv i64 %16, %15
  switch i16 %13, label %20 [
    i16 3, label %18
    i16 4, label %23
  ]

18:                                               ; preds = %2
  %19 = tail call zeroext i1 (ptr, ...) @SDL_SetError_REAL(ptr noundef nonnull @.str.67) #8
  br label %62

20:                                               ; preds = %2
  %21 = zext i16 %13 to i32
  %22 = tail call zeroext i1 (ptr, ...) @SDL_SetError_REAL(ptr noundef nonnull @.str.68, i32 noundef %21) #8
  br label %62

23:                                               ; preds = %2
  %24 = icmp samesign ule i64 %7, %10
  %25 = and i16 %9, 3
  %.not29 = icmp eq i16 %25, 0
  %or.cond = and i1 %24, %.not29
  br i1 %or.cond, label %28, label %26

26:                                               ; preds = %23
  %27 = tail call zeroext i1 (ptr, ...) @SDL_SetError_REAL(ptr noundef nonnull @.str.69) #8
  br label %62

28:                                               ; preds = %23
  %29 = load i16, ptr %3, align 4
  %30 = icmp eq i16 %29, -2
  br i1 %30, label %46, label %31

31:                                               ; preds = %28
  %32 = getelementptr inbounds nuw i8, ptr %0, i64 24
  %33 = load i64, ptr %32, align 8
  %34 = icmp ugt i64 %33, 19
  br i1 %34, label %35, label %46

35:                                               ; preds = %31
  %36 = getelementptr inbounds nuw i8, ptr %0, i64 52
  %37 = load i16, ptr %36, align 4
  %38 = icmp ugt i16 %37, 1
  br i1 %38, label %39, label %46

39:                                               ; preds = %35
  %40 = getelementptr inbounds nuw i8, ptr %0, i64 16
  %41 = load ptr, ptr %40, align 8
  %42 = getelementptr inbounds nuw i8, ptr %41, i64 18
  %43 = load i16, ptr %42, align 1
  %44 = zext i16 %43 to i32
  %45 = getelementptr inbounds nuw i8, ptr %0, i64 56
  store i32 %44, ptr %45, align 4
  br label %46

46:                                               ; preds = %31, %35, %39, %28
  %47 = getelementptr inbounds nuw i8, ptr %0, i64 56
  %48 = load i32, ptr %47, align 4
  %49 = icmp eq i32 %48, 0
  br i1 %49, label %50, label %53

50:                                               ; preds = %46
  %51 = trunc i64 %17 to i32
  %52 = add i32 %51, 1
  store i32 %52, ptr %47, align 4
  br label %53

53:                                               ; preds = %50, %46
  %54 = phi i32 [ %52, %50 ], [ %48, %46 ]
  %55 = add i32 %54, -1
  %56 = zext i32 %55 to i64
  %57 = icmp ult i64 %17, %56
  br i1 %57, label %58, label %60

58:                                               ; preds = %53
  %59 = tail call zeroext i1 (ptr, ...) @SDL_SetError_REAL(ptr noundef nonnull @.str.70) #8
  br label %62

60:                                               ; preds = %53
  %61 = tail call fastcc zeroext i1 @IMA_ADPCM_CalculateSampleFrames(ptr noundef %0, i64 noundef %1)
  br label %62

62:                                               ; preds = %60, %58, %26, %20, %18
  %.0 = phi i1 [ %19, %18 ], [ %22, %20 ], [ %27, %26 ], [ %59, %58 ], [ %61, %60 ]
  ret i1 %.0
}